; Function Attrs: nounwind uwtable
define noalias noundef ptr @Gia_AcecCollectXors(ptr noundef readonly captures(none) %0, ptr noundef readnone captures(none) %1) local_unnamed_addr #2 {
  %3 = tail call noalias dereferenceable_or_null(16) ptr @malloc(i64 noundef 16) #11
  %4 = getelementptr inbounds nuw i8, ptr %3, i64 4
  store i32 0, ptr %4, align 4, !tbaa !29
  store i32 100, ptr %3, align 8, !tbaa !30
  %5 = tail call noalias dereferenceable_or_null(400) ptr @malloc(i64 noundef 400) #11
  %6 = getelementptr inbounds nuw i8, ptr %3, i64 8
  store ptr %5, ptr %6, align 8, !tbaa !31
  %7 = getelementptr i8, ptr %0, i64 72
  %.val = load ptr, ptr %7, align 8, !tbaa !32
  %8 = getelementptr i8, ptr %.val, i64 4
  %.val.val = load i32, ptr %8, align 4, !tbaa !29
  %9 = getelementptr i8, ptr %0, i64 32
  %.val7 = load ptr, ptr %9, align 8, !tbaa !3
  %10 = getelementptr i8, ptr %.val, i64 8
  %.val8.val = load ptr, ptr %10, align 8, !tbaa !31
  %11 = sext i32 %.val.val to i64
  %12 = getelementptr i32, ptr %.val8.val, i64 %11
  %13 = getelementptr i8, ptr %12, i64 -4
  %14 = load i32, ptr %13, align 4, !tbaa !28
  %15 = sext i32 %14 to i64
  %16 = getelementptr inbounds %struct.Gia_Obj_t_, ptr %.val7, i64 %15
  %17 = load i64, ptr %16, align 4
  %18 = and i64 %17, 536870911
  %19 = sub nsw i64 0, %18
  %20 = getelementptr inbounds %struct.Gia_Obj_t_, ptr %16, i64 %19
  tail call void @Gia_AcecCollectXors_rec(ptr noundef %0, ptr noundef nonnull %20, ptr noundef %1, ptr noundef nonnull %3)
  ret ptr %3
}